target datalayout = "e-m:e-p270:32:32-p271:32:32-p272:64:64-i64:64-i128:128-f80:128-n8:16:32:64-S128"
target triple = "x86_64-pc-linux-gnu"

@.str.7 = private unnamed_addr constant [23 x i8] c"position out of bounds\00", align 1
@.str.8 = private unnamed_addr constant [40 x i8] c"initial position is a continuation byte\00", align 1

; Function Attrs: nounwind uwtable
define internal i64 @u_posrelat(i64 noundef %0, i64 noundef %1) #0 {
  %3 = alloca i64, align 8
  %4 = alloca i64, align 8
  %5 = alloca i64, align 8
  store i64 %0, ptr %4, align 8, !tbaa !11
  store i64 %1, ptr %5, align 8, !tbaa !13
  %6 = load i64, ptr %4, align 8, !tbaa !11
  %7 = icmp sge i64 %6, 0
  br i1 %7, label %8, label %10

8:                                                ; preds = %2
  %9 = load i64, ptr %4, align 8, !tbaa !11
  store i64 %9, ptr %3, align 8
  br label %21

10:                                               ; preds = %2
  %11 = load i64, ptr %4, align 8, !tbaa !11
  %12 = sub i64 0, %11
  %13 = load i64, ptr %5, align 8, !tbaa !13
  %14 = icmp ugt i64 %12, %13
  br i1 %14, label %15, label %16

15:                                               ; preds = %10
  store i64 0, ptr %3, align 8
  br label %21

16:                                               ; preds = %10
  %17 = load i64, ptr %5, align 8, !tbaa !13
  %18 = load i64, ptr %4, align 8, !tbaa !11
  %19 = add nsw i64 %17, %18
  %20 = add nsw i64 %19, 1
  store i64 %20, ptr %3, align 8
  br label %21

21:                                               ; preds = %16, %15, %8
  %22 = load i64, ptr %3, align 8
  ret i64 %22
}

; Function Attrs: nounwind uwtable
define internal i32 @byteoffset(ptr noundef %0) #0 {
  %2 = alloca i32, align 4
  %3 = alloca ptr, align 8
  %4 = alloca i64, align 8
  %5 = alloca ptr, align 8
  %6 = alloca i64, align 8
  %7 = alloca i64, align 8
  %8 = alloca i32, align 4
  store ptr %0, ptr %3, align 8, !tbaa !4
  call void @llvm.lifetime.start.p0(i64 8, ptr %4) #4
  call void @llvm.lifetime.start.p0(i64 8, ptr %5) #4
  %9 = load ptr, ptr %3, align 8, !tbaa !4
  %10 = call ptr @luaL_checklstring(ptr noundef %9, i32 noundef 1, ptr noundef %4)
  store ptr %10, ptr %5, align 8, !tbaa !9
  call void @llvm.lifetime.start.p0(i64 8, ptr %6) #4
  %11 = load ptr, ptr %3, align 8, !tbaa !4
  %12 = call i64 @luaL_checkinteger(ptr noundef %11, i32 noundef 2)
  store i64 %12, ptr %6, align 8, !tbaa !11
  call void @llvm.lifetime.start.p0(i64 8, ptr %7) #4
  %13 = load i64, ptr %6, align 8, !tbaa !11
  %14 = icmp sge i64 %13, 0
  br i1 %14, label %15, label %16

15:                                               ; preds = %1
  br label %19

16:                                               ; preds = %1
  %17 = load i64, ptr %4, align 8, !tbaa !13
  %18 = add nsw i64 %17, 1
  br label %19

19:                                               ; preds = %16, %15
  %20 = phi i64 [ 1, %15 ], [ %18, %16 ]
  store i64 %20, ptr %7, align 8, !tbaa !11
  %21 = load ptr, ptr %3, align 8, !tbaa !4
  %22 = load i64, ptr %7, align 8, !tbaa !11
  %23 = call i64 @luaL_optinteger(ptr noundef %21, i32 noundef 3, i64 noundef %22)
  %24 = load i64, ptr %4, align 8, !tbaa !13
  %25 = call i64 @u_posrelat(i64 noundef %23, i64 noundef %24)
  store i64 %25, ptr %7, align 8, !tbaa !11
  %26 = load i64, ptr %7, align 8, !tbaa !11
  %27 = icmp sle i64 1, %26
  br i1 %27, label %28, label %33

28:                                               ; preds = %19
  %29 = load i64, ptr %7, align 8, !tbaa !11
  %30 = add nsw i64 %29, -1
  store i64 %30, ptr %7, align 8, !tbaa !11
  %31 = load i64, ptr %4, align 8, !tbaa !13
  %32 = icmp sle i64 %30, %31
  br label %33

33:                                               ; preds = %28, %19
  %34 = phi i1 [ false, %19 ], [ %32, %28 ]
  %35 = zext i1 %34 to i32
  %36 = icmp ne i32 %35, 0
  %37 = zext i1 %36 to i32
  %38 = sext i32 %37 to i64
  %39 = call i64 @llvm.expect.i64(i64 %38, i64 1)
  %40 = icmp ne i64 %39, 0
  br i1 %40, label %44, label %41

41:                                               ; preds = %33
  %42 = load ptr, ptr %3, align 8, !tbaa !4
  %43 = call i32 @luaL_argerror(ptr noundef %42, i32 noundef 3, ptr noundef @.str.7)
  br label %44

44:                                               ; preds = %41, %33
  %45 = load i64, ptr %6, align 8, !tbaa !11
  %46 = icmp eq i64 %45, 0
  br i1 %46, label %47, label %65

47:                                               ; preds = %44
  br label %48

48:                                               ; preds = %61, %47
  %49 = load i64, ptr %7, align 8, !tbaa !11
  %50 = icmp sgt i64 %49, 0
  br i1 %50, label %51, label %59

51:                                               ; preds = %48
  %52 = load ptr, ptr %5, align 8, !tbaa !9
  %53 = load i64, ptr %7, align 8, !tbaa !11
  %54 = getelementptr inbounds i8, ptr %52, i64 %53
  %55 = load i8, ptr %54, align 1, !tbaa !15
  %56 = sext i8 %55 to i32
  %57 = and i32 %56, 192
  %58 = icmp eq i32 %57, 128
  br label %59

59:                                               ; preds = %51, %48
  %60 = phi i1 [ false, %48 ], [ %58, %51 ]
  br i1 %60, label %61, label %64

61:                                               ; preds = %59
  %62 = load i64, ptr %7, align 8, !tbaa !11
  %63 = add nsw i64 %62, -1
  store i64 %63, ptr %7, align 8, !tbaa !11
  br label %48

64:                                               ; preds = %59
  br label %138

65:                                               ; preds = %44
  %66 = load ptr, ptr %5, align 8, !tbaa !9
  %67 = load i64, ptr %7, align 8, !tbaa !11
  %68 = getelementptr inbounds i8, ptr %66, i64 %67
  %69 = load i8, ptr %68, align 1, !tbaa !15
  %70 = sext i8 %69 to i32
  %71 = and i32 %70, 192
  %72 = icmp eq i32 %71, 128
  br i1 %72, label %73, label %76

73:                                               ; preds = %65
  %74 = load ptr, ptr %3, align 8, !tbaa !4
  %75 = call i32 (ptr, ptr, ...) @luaL_error(ptr noundef %74, ptr noundef @.str.8)
  store i32 %75, ptr %2, align 4
  store i32 1, ptr %8, align 4
  br label %172

76:                                               ; preds = %65
  %77 = load i64, ptr %6, align 8, !tbaa !11
  %78 = icmp slt i64 %77, 0
  br i1 %78, label %79, label %109

79:                                               ; preds = %76
  br label %80

80:                                               ; preds = %105, %79
  %81 = load i64, ptr %6, align 8, !tbaa !11
  %82 = icmp slt i64 %81, 0
  br i1 %82, label %83, label %86

83:                                               ; preds = %80
  %84 = load i64, ptr %7, align 8, !tbaa !11
  %85 = icmp sgt i64 %84, 0
  br label %86

86:                                               ; preds = %83, %80
  %87 = phi i1 [ false, %80 ], [ %85, %83 ]
  br i1 %87, label %88, label %108

88:                                               ; preds = %86
  br label %89

89:                                               ; preds = %103, %88
  %90 = load i64, ptr %7, align 8, !tbaa !11
  %91 = add nsw i64 %90, -1
  store i64 %91, ptr %7, align 8, !tbaa !11
  br label %92

92:                                               ; preds = %89
  %93 = load i64, ptr %7, align 8, !tbaa !11
  %94 = icmp sgt i64 %93, 0
  br i1 %94, label %95, label %103

95:                                               ; preds = %92
  %96 = load ptr, ptr %5, align 8, !tbaa !9
  %97 = load i64, ptr %7, align 8, !tbaa !11
  %98 = getelementptr inbounds i8, ptr %96, i64 %97
  %99 = load i8, ptr %98, align 1, !tbaa !15
  %100 = sext i8 %99 to i32
  %101 = and i32 %100, 192
  %102 = icmp eq i32 %101, 128
  br label %103

103:                                              ; preds = %95, %92
  %104 = phi i1 [ false, %92 ], [ %102, %95 ]
  br i1 %104, label %89, label %105

105:                                              ; preds = %103
  %106 = load i64, ptr %6, align 8, !tbaa !11
  %107 = add nsw i64 %106, 1
  store i64 %107, ptr %6, align 8, !tbaa !11
  br label %80

108:                                              ; preds = %86
  br label %137

109:                                              ; preds = %76
  %110 = load i64, ptr %6, align 8, !tbaa !11
  %111 = add nsw i64 %110, -1
  store i64 %111, ptr %6, align 8, !tbaa !11
  br label %112

112:                                              ; preds = %133, %109
  %113 = load i64, ptr %6, align 8, !tbaa !11
  %114 = icmp sgt i64 %113, 0
  br i1 %114, label %115, label %119

115:                                              ; preds = %112
  %116 = load i64, ptr %7, align 8, !tbaa !11
  %117 = load i64, ptr %4, align 8, !tbaa !13
  %118 = icmp slt i64 %116, %117
  br label %119

119:                                              ; preds = %115, %112
  %120 = phi i1 [ false, %112 ], [ %118, %115 ]
  br i1 %120, label %121, label %136

121:                                              ; preds = %119
  br label %122

122:                                              ; preds = %125, %121
  %123 = load i64, ptr %7, align 8, !tbaa !11
  %124 = add nsw i64 %123, 1
  store i64 %124, ptr %7, align 8, !tbaa !11
  br label %125

125:                                              ; preds = %122
  %126 = load ptr, ptr %5, align 8, !tbaa !9
  %127 = load i64, ptr %7, align 8, !tbaa !11
  %128 = getelementptr inbounds i8, ptr %126, i64 %127
  %129 = load i8, ptr %128, align 1, !tbaa !15
  %130 = sext i8 %129 to i32
  %131 = and i32 %130, 192
  %132 = icmp eq i32 %131, 128
  br i1 %132, label %122, label %133

133:                                              ; preds = %125
  %134 = load i64, ptr %6, align 8, !tbaa !11
  %135 = add nsw i64 %134, -1
  store i64 %135, ptr %6, align 8, !tbaa !11
  br label %112

136:                                              ; preds = %119
  br label %137

137:                                              ; preds = %136, %108
  br label %138

138:                                              ; preds = %137, %64
  %139 = load i64, ptr %6, align 8, !tbaa !11
  %140 = icmp ne i64 %139, 0
  br i1 %140, label %141, label %143

141:                                              ; preds = %138
  %142 = load ptr, ptr %3, align 8, !tbaa !4
  call void @lua_pushnil(ptr noundef %142)
  store i32 1, ptr %2, align 4
  store i32 1, ptr %8, align 4
  br label %172

143:                                              ; preds = %138
  %144 = load ptr, ptr %3, align 8, !tbaa !4
  %145 = load i64, ptr %7, align 8, !tbaa !11
  %146 = add nsw i64 %145, 1
  call void @lua_pushinteger(ptr noundef %144, i64 noundef %146)
  %147 = load ptr, ptr %5, align 8, !tbaa !9
  %148 = load i64, ptr %7, align 8, !tbaa !11
  %149 = getelementptr inbounds i8, ptr %147, i64 %148
  %150 = load i8, ptr %149, align 1, !tbaa !15
  %151 = sext i8 %150 to i32
  %152 = and i32 %151, 128
  %153 = icmp ne i32 %152, 0
  br i1 %153, label %154, label %168

154:                                              ; preds = %143
  br label %155

155:                                              ; preds = %158, %154
  %156 = load i64, ptr %7, align 8, !tbaa !11
  %157 = add nsw i64 %156, 1
  store i64 %157, ptr %7, align 8, !tbaa !11
  br label %158

158:                                              ; preds = %155
  %159 = load ptr, ptr %5, align 8, !tbaa !9
  %160 = load i64, ptr %7, align 8, !tbaa !11
  %161 = getelementptr inbounds i8, ptr %159, i64 %160
  %162 = getelementptr inbounds i8, ptr %161, i64 1
  %163 = load i8, ptr %162, align 1, !tbaa !15
  %164 = sext i8 %163 to i32
  %165 = and i32 %164, 192
  %166 = icmp eq i32 %165, 128
  br i1 %166, label %155, label %167

167:                                              ; preds = %158
  br label %168

168:                                              ; preds = %167, %143
  %169 = load ptr, ptr %3, align 8, !tbaa !4
  %170 = load i64, ptr %7, align 8, !tbaa !11
  %171 = add nsw i64 %170, 1
  call void @lua_pushinteger(ptr noundef %169, i64 noundef %171)
  store i32 2, ptr %2, align 4
  store i32 1, ptr %8, align 4
  br label %172

172:                                              ; preds = %168, %141, %73
  call void @llvm.lifetime.end.p0(i64 8, ptr %7) #4
  call void @llvm.lifetime.end.p0(i64 8, ptr %6) #4
  call void @llvm.lifetime.end.p0(i64 8, ptr %5) #4
  call void @llvm.lifetime.end.p0(i64 8, ptr %4) #4
  %173 = load i32, ptr %2, align 4
  ret i32 %173
}