; Function Attrs: nounwind uwtable
define internal i32 @byteoffset(ptr noundef %0) #0 {
  %2 = alloca i64, align 8
  call void @llvm.lifetime.start.p0(i64 8, ptr nonnull %2) #3
  %3 = call ptr @luaL_checklstring(ptr noundef %0, i32 noundef 1, ptr noundef nonnull %2) #3
  %4 = call i64 @luaL_checkinteger(ptr noundef %0, i32 noundef 2) #3
  %5 = icmp sgt i64 %4, -1
  %6 = load i64, ptr %2, align 8
  %7 = add nsw i64 %6, 1
  %8 = select i1 %5, i64 1, i64 %7
  %9 = call i64 @luaL_optinteger(ptr noundef %0, i32 noundef 3, i64 noundef %8) #3
  %10 = load i64, ptr %2, align 8, !tbaa !4
  %11 = icmp sgt i64 %9, -1
  br i1 %11, label %u_posrelat.exit, label %12

12:                                               ; preds = %1
  %13 = sub i64 0, %9
  %14 = icmp ult i64 %10, %13
  br i1 %14, label %u_posrelat.exit.thread, label %15

15:                                               ; preds = %12
  %16 = add nsw i64 %9, 1
  %17 = add i64 %16, %10
  br label %u_posrelat.exit

u_posrelat.exit:                                  ; preds = %1, %15
  %.0.i = phi i64 [ %17, %15 ], [ %9, %1 ]
  %18 = icmp sgt i64 %.0.i, 0
  %19 = add nsw i64 %.0.i, -1
  %20 = icmp sle i64 %19, %10
  %.0 = select i1 %18, i64 %19, i64 %.0.i
  %21 = select i1 %18, i1 %20, i1 false
  br i1 %21, label %23, label %u_posrelat.exit.thread, !prof !8

u_posrelat.exit.thread:                           ; preds = %12, %u_posrelat.exit
  %.055 = phi i64 [ %.0, %u_posrelat.exit ], [ 0, %12 ]
  %22 = call i32 @luaL_argerror(ptr noundef %0, i32 noundef 3, ptr noundef nonnull @.str.7) #3
  br label %23

23:                                               ; preds = %u_posrelat.exit.thread, %u_posrelat.exit
  %.056 = phi i64 [ %.055, %u_posrelat.exit.thread ], [ %.0, %u_posrelat.exit ]
  %24 = icmp eq i64 %4, 0
  br i1 %24, label %.preheader57, label %32

.preheader57:                                     ; preds = %23
  %25 = icmp sgt i64 %.056, 0
  br i1 %25, label %.lr.ph, label %.critedge.thread

.lr.ph:                                           ; preds = %.preheader57, %29
  %.175 = phi i64 [ %30, %29 ], [ %.056, %.preheader57 ]
  %26 = getelementptr inbounds nuw i8, ptr %3, i64 %.175
  %27 = load i8, ptr %26, align 1, !tbaa !9
  %28 = icmp slt i8 %27, -64
  br i1 %28, label %29, label %.critedge.thread

29:                                               ; preds = %.lr.ph
  %30 = add nsw i64 %.175, -1
  %31 = icmp sgt i64 %.175, 1
  br i1 %31, label %.lr.ph, label %.critedge.thread

32:                                               ; preds = %23
  %33 = getelementptr inbounds i8, ptr %3, i64 %.056
  %34 = load i8, ptr %33, align 1, !tbaa !9
  %35 = icmp slt i8 %34, -64
  br i1 %35, label %36, label %38

36:                                               ; preds = %32
  %37 = call i32 (ptr, ptr, ...) @luaL_error(ptr noundef %0, ptr noundef nonnull @.str.8) #3
  br label %70

38:                                               ; preds = %32
  %39 = icmp slt i64 %4, 0
  br i1 %39, label %.preheader59, label %.preheader63

.preheader63:                                     ; preds = %38
  %40 = load i64, ptr %2, align 8
  %.24667 = add nsw i64 %4, -1
  %41 = icmp ne i64 %4, 1
  %42 = icmp slt i64 %.056, %40
  %43 = select i1 %41, i1 %42, i1 false
  br i1 %43, label %.preheader61, label %.critedge

.preheader59:                                     ; preds = %38
  %44 = icmp sgt i64 %.056, 0
  br i1 %44, label %.preheader58, label %.critedge.thread91

.preheader58:                                     ; preds = %.preheader59, %.critedge2
  %.372 = phi i64 [ %49, %.critedge2 ], [ %.056, %.preheader59 ]
  %.14571 = phi i64 [ %53, %.critedge2 ], [ %4, %.preheader59 ]
  br label %45

45:                                               ; preds = %.preheader58, %48
  %.4 = phi i64 [ %49, %48 ], [ %.372, %.preheader58 ]
  %46 = icmp samesign ugt i64 %.4, 1
  br i1 %46, label %48, label %.critedge2.thread

.critedge2.thread:                                ; preds = %45
  %47 = add nsw i64 %.14571, 1
  br label %.critedge

48:                                               ; preds = %45
  %49 = add nsw i64 %.4, -1
  %50 = getelementptr inbounds nuw i8, ptr %3, i64 %49
  %51 = load i8, ptr %50, align 1, !tbaa !9
  %52 = icmp slt i8 %51, -64
  br i1 %52, label %45, label %.critedge2

.critedge2:                                       ; preds = %48
  %53 = add nsw i64 %.14571, 1
  %54 = icmp slt i64 %.14571, -1
  br i1 %54, label %.preheader58, label %.critedge

.loopexit62:                                      ; preds = %58
  %.246 = add nsw i64 %.24669, -1
  %55 = icmp sgt i64 %.24669, 1
  %56 = icmp slt i64 %59, %40
  %57 = select i1 %55, i1 %56, i1 false
  br i1 %57, label %.preheader61, label %.critedge

.preheader61:                                     ; preds = %.preheader63, %.loopexit62
  %.24669 = phi i64 [ %.246, %.loopexit62 ], [ %.24667, %.preheader63 ]
  %.568 = phi i64 [ %59, %.loopexit62 ], [ %.056, %.preheader63 ]
  br label %58

58:                                               ; preds = %.preheader61, %58
  %.6 = phi i64 [ %59, %58 ], [ %.568, %.preheader61 ]
  %59 = add nsw i64 %.6, 1
  %60 = getelementptr inbounds i8, ptr %3, i64 %59
  %61 = load i8, ptr %60, align 1, !tbaa !9
  %62 = icmp slt i8 %61, -64
  br i1 %62, label %58, label %.loopexit62

.critedge:                                        ; preds = %.loopexit62, %.critedge2, %.critedge2.thread, %.preheader63
  %.044 = phi i64 [ %.24667, %.preheader63 ], [ %47, %.critedge2.thread ], [ %53, %.critedge2 ], [ %.246, %.loopexit62 ]
  %.2 = phi i64 [ %.056, %.preheader63 ], [ 0, %.critedge2.thread ], [ %49, %.critedge2 ], [ %59, %.loopexit62 ]
  %.not = icmp eq i64 %.044, 0
  br i1 %.not, label %.critedge.thread, label %.critedge.thread91

.critedge.thread91:                               ; preds = %.preheader59, %.critedge
  call void @lua_pushnil(ptr noundef %0) #3
  br label %70

.critedge.thread:                                 ; preds = %29, %.lr.ph, %.preheader57, %.critedge
  %.290 = phi i64 [ %.2, %.critedge ], [ %.056, %.preheader57 ], [ 0, %29 ], [ %.175, %.lr.ph ]
  %63 = add nsw i64 %.290, 1
  call void @lua_pushinteger(ptr noundef %0, i64 noundef %63) #3
  %64 = getelementptr inbounds i8, ptr %3, i64 %.290
  %65 = load i8, ptr %64, align 1, !tbaa !9
  %.not52 = icmp sgt i8 %65, -1
  br i1 %.not52, label %.loopexit, label %.preheader

.preheader:                                       ; preds = %.critedge.thread
  %invariant.gep = getelementptr i8, ptr %3, i64 1
  br label %66

66:                                               ; preds = %.preheader, %66
  %.8 = phi i64 [ %67, %66 ], [ %.290, %.preheader ]
  %67 = add nsw i64 %.8, 1
  %gep = getelementptr i8, ptr %invariant.gep, i64 %67
  %68 = load i8, ptr %gep, align 1, !tbaa !9
  %69 = icmp slt i8 %68, -64
  br i1 %69, label %66, label %.loopexit.loopexit

.loopexit.loopexit:                               ; preds = %66
  %.pre = add nsw i64 %.8, 2
  br label %.loopexit

.loopexit:                                        ; preds = %.loopexit.loopexit, %.critedge.thread
  %.pre-phi = phi i64 [ %.pre, %.loopexit.loopexit ], [ %63, %.critedge.thread ]
  call void @lua_pushinteger(ptr noundef %0, i64 noundef %.pre-phi) #3
  br label %70

70:                                               ; preds = %.loopexit, %.critedge.thread91, %36
  %.047 = phi i32 [ 1, %.critedge.thread91 ], [ 2, %.loopexit ], [ %37, %36 ]
  call void @llvm.lifetime.end.p0(i64 8, ptr nonnull %2) #3
  ret i32 %.047
}